; Function Attrs: mustprogress uwtable
define <2 x float> @_ZNK32pxrInternal_v0_24__pxrReserved__9GfRange2f9GetCornerEm(ptr noundef nonnull readonly align 4 captures(none) dereferenceable(16) %0, i64 noundef %1) local_unnamed_addr #1 align 2 {
  %3 = alloca %"class.pxrInternal_v0_24__pxrReserved__::TfCallContext", align 8
  %4 = icmp ugt i64 %1, 3
  br i1 %4, label %5, label %11

5:                                                ; preds = %2
  store ptr @.str.3, ptr %3, align 8
  %6 = getelementptr inbounds nuw i8, ptr %3, i64 8
  store ptr @__func__._ZNK32pxrInternal_v0_24__pxrReserved__9GfRange2f9GetCornerEm, ptr %6, align 8
  %7 = getelementptr inbounds nuw i8, ptr %3, i64 16
  store i64 71, ptr %7, align 8
  %8 = getelementptr inbounds nuw i8, ptr %3, i64 24
  store ptr @__PRETTY_FUNCTION__._ZNK32pxrInternal_v0_24__pxrReserved__9GfRange2f9GetCornerEm, ptr %8, align 8
  %9 = getelementptr inbounds nuw i8, ptr %3, i64 32
  store i8 0, ptr %9, align 8
  call void (ptr, i32, ptr, ...) @_ZN32pxrInternal_v0_24__pxrReserved__18Tf_PostErrorHelperERKNS_13TfCallContextENS_16TfDiagnosticTypeEPKcz(ptr noundef nonnull align 8 dereferenceable(33) %3, i32 noundef 1, ptr noundef nonnull @.str.4, i64 noundef %1)
  %10 = load <2 x float>, ptr %0, align 4
  br label %18

11:                                               ; preds = %2
  %12 = and i64 %1, 1
  %.not = icmp eq i64 %12, 0
  %13 = getelementptr inbounds nuw i8, ptr %0, i64 8
  %.val = load float, ptr %0, align 4
  %.val7 = load float, ptr %13, align 4
  %14 = select i1 %.not, float %.val, float %.val7
  %.not4 = icmp samesign ult i64 %1, 2
  %15 = select i1 %.not4, ptr %0, ptr %13
  %16 = getelementptr inbounds nuw i8, ptr %15, i64 4
  %17 = load float, ptr %16, align 4
  %.sroa.0.0.vec.insert = insertelement <2 x float> poison, float %14, i64 0
  %.sroa.0.4.vec.insert = insertelement <2 x float> %.sroa.0.0.vec.insert, float %17, i64 1
  br label %18

18:                                               ; preds = %11, %5
  %.sroa.0.0 = phi <2 x float> [ %10, %5 ], [ %.sroa.0.4.vec.insert, %11 ]
  ret <2 x float> %.sroa.0.0
}